; Function Attrs: mustprogress nofree norecurse nosync nounwind willreturn memory(readwrite, inaccessiblemem: none) uwtable
define hidden void @_ZN9Assembler6prefixE8RegisterS0_NS_6PrefixE(ptr nocapture noundef nonnull readonly align 8 dereferenceable(40) %0, i32 %1, i32 %2, i32 noundef %3) local_unnamed_addr #8 align 2 {
  %5 = and i32 %3, 54528
  %.not = icmp eq i32 %5, 0
  %6 = sext i32 %2 to i64
  br i1 %.not, label %7, label %._crit_edge

7:                                                ; preds = %4
  %8 = getelementptr inbounds %"class.Register::RegisterImpl", ptr getelementptr inbounds (i8, ptr @all_RegisterImpls, i64 1), i64 %6
  %9 = ptrtoint ptr %8 to i64
  %10 = trunc i64 %9 to i32
  %11 = sub i32 %10, ptrtoint (ptr getelementptr inbounds (i8, ptr @all_RegisterImpls, i64 1) to i32)
  %12 = icmp sgt i32 %11, 15
  br i1 %12, label %._crit_edge, label %13

13:                                               ; preds = %7
  %14 = sext i32 %1 to i64
  %15 = getelementptr inbounds %"class.Register::RegisterImpl", ptr getelementptr inbounds (i8, ptr @all_RegisterImpls, i64 1), i64 %14
  %16 = ptrtoint ptr %15 to i64
  %17 = trunc i64 %16 to i32
  %18 = sub i32 %17, ptrtoint (ptr getelementptr inbounds (i8, ptr @all_RegisterImpls, i64 1) to i32)
  %19 = icmp sgt i32 %18, 15
  br i1 %19, label %._crit_edge, label %41

._crit_edge:                                      ; preds = %4, %13, %7
  %20 = getelementptr inbounds %"class.Register::RegisterImpl", ptr getelementptr inbounds (i8, ptr @all_RegisterImpls, i64 1), i64 %6
  %21 = ptrtoint ptr %20 to i64
  %22 = trunc i64 %21 to i32
  %23 = sub i32 %22, ptrtoint (ptr getelementptr inbounds (i8, ptr @all_RegisterImpls, i64 1) to i32)
  %24 = and i32 %23, 16
  %25 = lshr i32 %23, 3
  %26 = and i32 %25, 1
  %27 = sext i32 %1 to i64
  %28 = getelementptr inbounds %"class.Register::RegisterImpl", ptr getelementptr inbounds (i8, ptr @all_RegisterImpls, i64 1), i64 %27
  %29 = ptrtoint ptr %28 to i64
  %30 = trunc i64 %29 to i32
  %31 = sub i32 %30, ptrtoint (ptr getelementptr inbounds (i8, ptr @all_RegisterImpls, i64 1) to i32)
  %32 = shl i32 %31, 2
  %spec.select.i.i = and i32 %32, 64
  %33 = lshr i32 %31, 1
  %34 = and i32 %33, 4
  %.1.i.i = or disjoint i32 %spec.select.i.i, %34
  %.1.i3.i = or disjoint i32 %.1.i.i, %24
  %35 = or disjoint i32 %.1.i3.i, %26
  %36 = getelementptr inbounds i8, ptr %0, i64 8
  %37 = load ptr, ptr %36, align 8
  %38 = getelementptr inbounds i8, ptr %37, i64 16
  %39 = load ptr, ptr %38, align 8
  %40 = getelementptr inbounds i8, ptr %39, i64 1
  store i8 -43, ptr %39, align 1
  store ptr %40, ptr %38, align 8
  br label %.sink.split

41:                                               ; preds = %13
  %42 = icmp sgt i32 %11, 7
  %43 = or i32 %3, 65
  %spec.select = select i1 %42, i32 %43, i32 %3
  %44 = icmp sgt i32 %18, 7
  %45 = or i32 %spec.select, 68
  %.1 = select i1 %44, i32 %45, i32 %spec.select
  %.not6 = icmp eq i32 %.1, 0
  br i1 %.not6, label %52, label %46

46:                                               ; preds = %41
  %47 = getelementptr inbounds i8, ptr %0, i64 8
  br label %.sink.split

.sink.split:                                      ; preds = %._crit_edge, %46
  %.sink = phi ptr [ %47, %46 ], [ %36, %._crit_edge ]
  %.1.sink = phi i32 [ %.1, %46 ], [ %35, %._crit_edge ]
  %48 = load ptr, ptr %.sink, align 8
  %.0.i.i.i = trunc i32 %.1.sink to i8
  %49 = getelementptr inbounds i8, ptr %48, i64 16
  %50 = load ptr, ptr %49, align 8
  %51 = getelementptr inbounds i8, ptr %50, i64 1
  store i8 %.0.i.i.i, ptr %50, align 1
  store ptr %51, ptr %49, align 8
  br label %52

52:                                               ; preds = %.sink.split, %41
  ret void
}